target datalayout = "e-m:e-p270:32:32-p271:32:32-p272:64:64-i64:64-i128:128-f80:128-n8:16:32:64-S128"
target triple = "x86_64-pc-linux-gnu"

@.str = private unnamed_addr constant [34 x i8] c"../openssl/crypto/bio/bio_print.c\00", align 1

; Function Attrs: nounwind uwtable
define i32 @BIO_vprintf(ptr noundef %0, ptr noundef %1, ptr noundef %2) #0 {
  %4 = alloca i32, align 4
  %5 = alloca ptr, align 8
  %6 = alloca ptr, align 8
  %7 = alloca ptr, align 8
  %8 = alloca i32, align 4
  %9 = alloca i64, align 8
  %10 = alloca [2048 x i8], align 16
  %11 = alloca ptr, align 8
  %12 = alloca i64, align 8
  %13 = alloca ptr, align 8
  %14 = alloca i32, align 4
  %15 = alloca i32, align 4
  store ptr %0, ptr %5, align 8, !tbaa !3
  store ptr %1, ptr %6, align 8, !tbaa !8
  store ptr %2, ptr %7, align 8, !tbaa !12
  call void @llvm.lifetime.start.p0(i64 4, ptr %8) #7
  call void @llvm.lifetime.start.p0(i64 8, ptr %9) #7
  call void @llvm.lifetime.start.p0(i64 2048, ptr %10) #7
  call void @llvm.lifetime.start.p0(i64 8, ptr %11) #7
  %16 = getelementptr inbounds [2048 x i8], ptr %10, i64 0, i64 0
  store ptr %16, ptr %11, align 8, !tbaa !8
  call void @llvm.lifetime.start.p0(i64 8, ptr %12) #7
  store i64 2048, ptr %12, align 8, !tbaa !14
  call void @llvm.lifetime.start.p0(i64 8, ptr %13) #7
  store ptr null, ptr %13, align 8, !tbaa !8
  call void @llvm.lifetime.start.p0(i64 4, ptr %14) #7
  store ptr null, ptr %13, align 8, !tbaa !8
  %17 = load ptr, ptr %6, align 8, !tbaa !8
  %18 = load ptr, ptr %7, align 8, !tbaa !12
  %19 = call i32 @_dopr(ptr noundef %11, ptr noundef %13, ptr noundef %12, ptr noundef %9, ptr noundef %14, ptr noundef %17, ptr noundef %18)
  %20 = icmp ne i32 %19, 0
  br i1 %20, label %23, label %21

21:                                               ; preds = %3
  %22 = load ptr, ptr %13, align 8, !tbaa !8
  call void @CRYPTO_free(ptr noundef %22, ptr noundef @.str, i32 noundef 906)
  store i32 -1, ptr %4, align 4
  store i32 1, ptr %15, align 4
  br label %41

23:                                               ; preds = %3
  %24 = load ptr, ptr %13, align 8, !tbaa !8
  %25 = icmp ne ptr %24, null
  br i1 %25, label %26, label %33

26:                                               ; preds = %23
  %27 = load ptr, ptr %5, align 8, !tbaa !3
  %28 = load ptr, ptr %13, align 8, !tbaa !8
  %29 = load i64, ptr %9, align 8, !tbaa !14
  %30 = trunc i64 %29 to i32
  %31 = call i32 @BIO_write(ptr noundef %27, ptr noundef %28, i32 noundef %30)
  store i32 %31, ptr %8, align 4, !tbaa !10
  %32 = load ptr, ptr %13, align 8, !tbaa !8
  call void @CRYPTO_free(ptr noundef %32, ptr noundef @.str, i32 noundef 911)
  br label %39

33:                                               ; preds = %23
  %34 = load ptr, ptr %5, align 8, !tbaa !3
  %35 = getelementptr inbounds [2048 x i8], ptr %10, i64 0, i64 0
  %36 = load i64, ptr %9, align 8, !tbaa !14
  %37 = trunc i64 %36 to i32
  %38 = call i32 @BIO_write(ptr noundef %34, ptr noundef %35, i32 noundef %37)
  store i32 %38, ptr %8, align 4, !tbaa !10
  br label %39

39:                                               ; preds = %33, %26
  %40 = load i32, ptr %8, align 4, !tbaa !10
  store i32 %40, ptr %4, align 4
  store i32 1, ptr %15, align 4
  br label %41

41:                                               ; preds = %39, %21
  call void @llvm.lifetime.end.p0(i64 4, ptr %14) #7
  call void @llvm.lifetime.end.p0(i64 8, ptr %13) #7
  call void @llvm.lifetime.end.p0(i64 8, ptr %12) #7
  call void @llvm.lifetime.end.p0(i64 8, ptr %11) #7
  call void @llvm.lifetime.end.p0(i64 2048, ptr %10) #7
  call void @llvm.lifetime.end.p0(i64 8, ptr %9) #7
  call void @llvm.lifetime.end.p0(i64 4, ptr %8) #7
  %42 = load i32, ptr %4, align 4
  ret i32 %42
}