; Function Attrs: nounwind uwtable
define i32 @BIO_vprintf(ptr noundef %0, ptr noundef readonly captures(none) %1, ptr noundef %2) local_unnamed_addr #0 {
  %4 = alloca i64, align 8
  %5 = alloca [2048 x i8], align 16
  %6 = alloca ptr, align 8
  %7 = alloca i64, align 8
  %8 = alloca ptr, align 8
  %9 = alloca i32, align 4
  call void @llvm.lifetime.start.p0(i64 8, ptr nonnull %4) #7
  call void @llvm.lifetime.start.p0(i64 2048, ptr nonnull %5) #7
  call void @llvm.lifetime.start.p0(i64 8, ptr nonnull %6) #7
  store ptr %5, ptr %6, align 8, !tbaa !3
  call void @llvm.lifetime.start.p0(i64 8, ptr nonnull %7) #7
  store i64 2048, ptr %7, align 8, !tbaa !8
  call void @llvm.lifetime.start.p0(i64 8, ptr nonnull %8) #7
  call void @llvm.lifetime.start.p0(i64 4, ptr nonnull %9) #7
  store ptr null, ptr %8, align 8, !tbaa !3
  %10 = call fastcc i32 @_dopr(ptr noundef %6, ptr noundef nonnull %8, ptr noundef %7, ptr noundef %4, ptr noundef %9, ptr noundef %1, ptr noundef %2)
  %.not = icmp eq i32 %10, 0
  %11 = load ptr, ptr %8, align 8, !tbaa !3
  br i1 %.not, label %12, label %13

12:                                               ; preds = %3
  call void @CRYPTO_free(ptr noundef %11, ptr noundef nonnull @.str, i32 noundef 906) #7
  br label %21

13:                                               ; preds = %3
  %.not7 = icmp eq ptr %11, null
  %14 = load i64, ptr %4, align 8, !tbaa !8
  %15 = trunc i64 %14 to i32
  br i1 %.not7, label %19, label %16

16:                                               ; preds = %13
  %17 = call i32 @BIO_write(ptr noundef %0, ptr noundef nonnull %11, i32 noundef %15) #7
  %18 = load ptr, ptr %8, align 8, !tbaa !3
  call void @CRYPTO_free(ptr noundef %18, ptr noundef nonnull @.str, i32 noundef 911) #7
  br label %21

19:                                               ; preds = %13
  %20 = call i32 @BIO_write(ptr noundef %0, ptr noundef nonnull %5, i32 noundef %15) #7
  br label %21

21:                                               ; preds = %16, %19, %12
  %.05 = phi i32 [ -1, %12 ], [ %17, %16 ], [ %20, %19 ]
  call void @llvm.lifetime.end.p0(i64 4, ptr nonnull %9) #7
  call void @llvm.lifetime.end.p0(i64 8, ptr nonnull %8) #7
  call void @llvm.lifetime.end.p0(i64 8, ptr nonnull %7) #7
  call void @llvm.lifetime.end.p0(i64 8, ptr nonnull %6) #7
  call void @llvm.lifetime.end.p0(i64 2048, ptr nonnull %5) #7
  call void @llvm.lifetime.end.p0(i64 8, ptr nonnull %4) #7
  ret i32 %.05
}